target datalayout = "e-m:e-p270:32:32-p271:32:32-p272:64:64-i64:64-i128:128-f80:128-n8:16:32:64-S128"
target triple = "x86_64-pc-linux-gnu"

%struct.List = type { i32, i32, i32, ptr, [0 x %union.ListCell] }
%union.ListCell = type { ptr }
%struct.RelOptInfo = type { i32, i32, ptr, double, i8, i8, i8, ptr, ptr, ptr, ptr, ptr, ptr, ptr, ptr, ptr, ptr, i32, i32, i32, i16, i16, ptr, ptr, ptr, ptr, ptr, ptr, ptr, ptr, i32, double, double, ptr, ptr, ptr, i32, i32, i32, i32, i8, ptr, ptr, ptr, ptr, ptr, %struct.QualCost, i32, ptr, i8, i8, ptr, ptr, ptr, ptr, i32, ptr, i8, ptr, ptr, ptr, ptr, ptr, ptr }
%struct.QualCost = type { double, double }
%struct.SpecialJoinInfo = type { i32, ptr, ptr, ptr, ptr, i32, i32, ptr, ptr, ptr, ptr, i8, i8, i8, ptr, ptr }
%struct.Node = type { i32 }
%struct.ProjectionPath = type { %struct.Path, ptr, i8 }
%struct.Path = type { i32, i32, ptr, ptr, ptr, i8, i8, i32, double, i32, double, double, ptr }
%struct.ProjectSetPath = type { %struct.Path, ptr }
%struct.AppendPath = type { %struct.Path, ptr, i32, double }

; Function Attrs: inlinehint nounwind uwtable
define internal ptr @list_nth_cell(ptr noundef %0, i32 noundef %1) #3 {
  %3 = alloca ptr, align 8
  %4 = alloca i32, align 4
  store ptr %0, ptr %3, align 8
  store i32 %1, ptr %4, align 4
  %5 = load ptr, ptr %3, align 8
  %6 = getelementptr inbounds nuw %struct.List, ptr %5, i32 0, i32 3
  %7 = load ptr, ptr %6, align 8
  %8 = load i32, ptr %4, align 4
  %9 = sext i32 %8 to i64
  %10 = getelementptr inbounds %union.ListCell, ptr %7, i64 %9
  ret ptr %10
}

; Function Attrs: nounwind uwtable
define dso_local zeroext i1 @is_dummy_rel(ptr noundef %0) #0 {
  %2 = alloca i1, align 1
  %3 = alloca ptr, align 8
  %4 = alloca ptr, align 8
  %5 = alloca i32, align 4
  store ptr %0, ptr %3, align 8
  call void @llvm.lifetime.start.p0(i64 8, ptr %4) #7
  %6 = load ptr, ptr %3, align 8
  %7 = getelementptr inbounds nuw %struct.RelOptInfo, ptr %6, i32 0, i32 8
  %8 = load ptr, ptr %7, align 8
  %9 = icmp eq ptr %8, null
  br i1 %9, label %10, label %11

10:                                               ; preds = %1
  store i1 false, ptr %2, align 1
  store i32 1, ptr %5, align 4
  br label %50

11:                                               ; preds = %1
  %12 = load ptr, ptr %3, align 8
  %13 = getelementptr inbounds nuw %struct.RelOptInfo, ptr %12, i32 0, i32 8
  %14 = load ptr, ptr %13, align 8
  %15 = call ptr @list_nth_cell(ptr noundef %14, i32 noundef 0)
  %16 = load ptr, ptr %15, align 8
  store ptr %16, ptr %4, align 8
  br label %17

17:                                               ; preds = %37, %11
  %18 = load ptr, ptr %4, align 8
  %19 = getelementptr inbounds nuw %struct.Node, ptr %18, i32 0, i32 0
  %20 = load i32, ptr %19, align 4
  %21 = icmp eq i32 %20, 300
  br i1 %21, label %22, label %26

22:                                               ; preds = %17
  %23 = load ptr, ptr %4, align 8
  %24 = getelementptr inbounds nuw %struct.ProjectionPath, ptr %23, i32 0, i32 1
  %25 = load ptr, ptr %24, align 8
  store ptr %25, ptr %4, align 8
  br label %37

26:                                               ; preds = %17
  %27 = load ptr, ptr %4, align 8
  %28 = getelementptr inbounds nuw %struct.Node, ptr %27, i32 0, i32 0
  %29 = load i32, ptr %28, align 4
  %30 = icmp eq i32 %29, 301
  br i1 %30, label %31, label %35

31:                                               ; preds = %26
  %32 = load ptr, ptr %4, align 8
  %33 = getelementptr inbounds nuw %struct.ProjectSetPath, ptr %32, i32 0, i32 1
  %34 = load ptr, ptr %33, align 8
  store ptr %34, ptr %4, align 8
  br label %36

35:                                               ; preds = %26
  br label %38

36:                                               ; preds = %31
  br label %37

37:                                               ; preds = %36, %22
  br label %17

38:                                               ; preds = %35
  %39 = load ptr, ptr %4, align 8
  %40 = getelementptr inbounds nuw %struct.Node, ptr %39, i32 0, i32 0
  %41 = load i32, ptr %40, align 4
  %42 = icmp eq i32 %41, 289
  br i1 %42, label %43, label %49

43:                                               ; preds = %38
  %44 = load ptr, ptr %4, align 8
  %45 = getelementptr inbounds nuw %struct.AppendPath, ptr %44, i32 0, i32 1
  %46 = load ptr, ptr %45, align 8
  %47 = icmp eq ptr %46, null
  br i1 %47, label %48, label %49

48:                                               ; preds = %43
  store i1 true, ptr %2, align 1
  store i32 1, ptr %5, align 4
  br label %50

49:                                               ; preds = %43, %38
  store i1 false, ptr %2, align 1
  store i32 1, ptr %5, align 4
  br label %50

50:                                               ; preds = %49, %48, %10
  call void @llvm.lifetime.end.p0(i64 8, ptr %4) #7
  %51 = load i1, ptr %2, align 1
  ret i1 %51
}

; Function Attrs: nounwind uwtable
define dso_local void @init_dummy_sjinfo(ptr noundef %0, ptr noundef %1, ptr noundef %2) #0 {
  %4 = alloca ptr, align 8
  %5 = alloca ptr, align 8
  %6 = alloca ptr, align 8
  store ptr %0, ptr %4, align 8
  store ptr %1, ptr %5, align 8
  store ptr %2, ptr %6, align 8
  %7 = load ptr, ptr %4, align 8
  %8 = getelementptr inbounds nuw %struct.SpecialJoinInfo, ptr %7, i32 0, i32 0
  store i32 319, ptr %8, align 8
  %9 = load ptr, ptr %5, align 8
  %10 = load ptr, ptr %4, align 8
  %11 = getelementptr inbounds nuw %struct.SpecialJoinInfo, ptr %10, i32 0, i32 1
  store ptr %9, ptr %11, align 8
  %12 = load ptr, ptr %6, align 8
  %13 = load ptr, ptr %4, align 8
  %14 = getelementptr inbounds nuw %struct.SpecialJoinInfo, ptr %13, i32 0, i32 2
  store ptr %12, ptr %14, align 8
  %15 = load ptr, ptr %5, align 8
  %16 = load ptr, ptr %4, align 8
  %17 = getelementptr inbounds nuw %struct.SpecialJoinInfo, ptr %16, i32 0, i32 3
  store ptr %15, ptr %17, align 8
  %18 = load ptr, ptr %6, align 8
  %19 = load ptr, ptr %4, align 8
  %20 = getelementptr inbounds nuw %struct.SpecialJoinInfo, ptr %19, i32 0, i32 4
  store ptr %18, ptr %20, align 8
  %21 = load ptr, ptr %4, align 8
  %22 = getelementptr inbounds nuw %struct.SpecialJoinInfo, ptr %21, i32 0, i32 5
  store i32 0, ptr %22, align 8
  %23 = load ptr, ptr %4, align 8
  %24 = getelementptr inbounds nuw %struct.SpecialJoinInfo, ptr %23, i32 0, i32 6
  store i32 0, ptr %24, align 4
  %25 = load ptr, ptr %4, align 8
  %26 = getelementptr inbounds nuw %struct.SpecialJoinInfo, ptr %25, i32 0, i32 7
  store ptr null, ptr %26, align 8
  %27 = load ptr, ptr %4, align 8
  %28 = getelementptr inbounds nuw %struct.SpecialJoinInfo, ptr %27, i32 0, i32 8
  store ptr null, ptr %28, align 8
  %29 = load ptr, ptr %4, align 8
  %30 = getelementptr inbounds nuw %struct.SpecialJoinInfo, ptr %29, i32 0, i32 9
  store ptr null, ptr %30, align 8
  %31 = load ptr, ptr %4, align 8
  %32 = getelementptr inbounds nuw %struct.SpecialJoinInfo, ptr %31, i32 0, i32 10
  store ptr null, ptr %32, align 8
  %33 = load ptr, ptr %4, align 8
  %34 = getelementptr inbounds nuw %struct.SpecialJoinInfo, ptr %33, i32 0, i32 11
  store i8 0, ptr %34, align 8
  %35 = load ptr, ptr %4, align 8
  %36 = getelementptr inbounds nuw %struct.SpecialJoinInfo, ptr %35, i32 0, i32 12
  store i8 0, ptr %36, align 1
  %37 = load ptr, ptr %4, align 8
  %38 = getelementptr inbounds nuw %struct.SpecialJoinInfo, ptr %37, i32 0, i32 13
  store i8 0, ptr %38, align 2
  %39 = load ptr, ptr %4, align 8
  %40 = getelementptr inbounds nuw %struct.SpecialJoinInfo, ptr %39, i32 0, i32 14
  store ptr null, ptr %40, align 8
  %41 = load ptr, ptr %4, align 8
  %42 = getelementptr inbounds nuw %struct.SpecialJoinInfo, ptr %41, i32 0, i32 15
  store ptr null, ptr %42, align 8
  ret void
}

; Function Attrs: nounwind uwtable
define dso_local ptr @make_join_rel(ptr noundef %0, ptr noundef %1, ptr noundef %2) #0 {
  %4 = alloca ptr, align 8
  %5 = alloca ptr, align 8
  %6 = alloca ptr, align 8
  %7 = alloca ptr, align 8
  %8 = alloca ptr, align 8
  %9 = alloca ptr, align 8
  %10 = alloca i8, align 1
  %11 = alloca ptr, align 8
  %12 = alloca %struct.SpecialJoinInfo, align 8
  %13 = alloca ptr, align 8
  %14 = alloca ptr, align 8
  %15 = alloca i32, align 4
  %16 = alloca ptr, align 8
  store ptr %0, ptr %5, align 8
  store ptr %1, ptr %6, align 8
  store ptr %2, ptr %7, align 8
  call void @llvm.lifetime.start.p0(i64 8, ptr %8) #7
  call void @llvm.lifetime.start.p0(i64 8, ptr %9) #7
  call void @llvm.lifetime.start.p0(i64 1, ptr %10) #7
  call void @llvm.lifetime.start.p0(i64 8, ptr %11) #7
  store ptr null, ptr %11, align 8
  call void @llvm.lifetime.start.p0(i64 104, ptr %12) #7
  call void @llvm.lifetime.start.p0(i64 8, ptr %13) #7
  call void @llvm.lifetime.start.p0(i64 8, ptr %14) #7
  %17 = load ptr, ptr %6, align 8
  %18 = getelementptr inbounds nuw %struct.RelOptInfo, ptr %17, i32 0, i32 2
  %19 = load ptr, ptr %18, align 8
  %20 = load ptr, ptr %7, align 8
  %21 = getelementptr inbounds nuw %struct.RelOptInfo, ptr %20, i32 0, i32 2
  %22 = load ptr, ptr %21, align 8
  %23 = call ptr @bms_union(ptr noundef %19, ptr noundef %22)
  store ptr %23, ptr %8, align 8
  %24 = load ptr, ptr %5, align 8
  %25 = load ptr, ptr %6, align 8
  %26 = load ptr, ptr %7, align 8
  %27 = load ptr, ptr %8, align 8
  %28 = call zeroext i1 @join_is_legal(ptr noundef %24, ptr noundef %25, ptr noundef %26, ptr noundef %27, ptr noundef %9, ptr noundef %10)
  br i1 %28, label %31, label %29

29:                                               ; preds = %3
  %30 = load ptr, ptr %8, align 8
  call void @bms_free(ptr noundef %30)
  store ptr null, ptr %4, align 8
  store i32 1, ptr %15, align 4
  br label %75

31:                                               ; preds = %3
  %32 = load ptr, ptr %5, align 8
  %33 = load ptr, ptr %8, align 8
  %34 = load ptr, ptr %9, align 8
  %35 = call ptr @add_outer_joins_to_relids(ptr noundef %32, ptr noundef %33, ptr noundef %34, ptr noundef %11)
  store ptr %35, ptr %8, align 8
  %36 = load i8, ptr %10, align 1, !range !4, !noundef !5
  %37 = trunc i8 %36 to i1
  br i1 %37, label %38, label %42

38:                                               ; preds = %31
  call void @llvm.lifetime.start.p0(i64 8, ptr %16) #7
  %39 = load ptr, ptr %6, align 8
  store ptr %39, ptr %16, align 8
  %40 = load ptr, ptr %7, align 8
  store ptr %40, ptr %6, align 8
  %41 = load ptr, ptr %16, align 8
  store ptr %41, ptr %7, align 8
  call void @llvm.lifetime.end.p0(i64 8, ptr %16) #7
  br label %42

42:                                               ; preds = %38, %31
  %43 = load ptr, ptr %9, align 8
  %44 = icmp eq ptr %43, null
  br i1 %44, label %45, label %53

45:                                               ; preds = %42
  store ptr %12, ptr %9, align 8
  %46 = load ptr, ptr %9, align 8
  %47 = load ptr, ptr %6, align 8
  %48 = getelementptr inbounds nuw %struct.RelOptInfo, ptr %47, i32 0, i32 2
  %49 = load ptr, ptr %48, align 8
  %50 = load ptr, ptr %7, align 8
  %51 = getelementptr inbounds nuw %struct.RelOptInfo, ptr %50, i32 0, i32 2
  %52 = load ptr, ptr %51, align 8
  call void @init_dummy_sjinfo(ptr noundef %46, ptr noundef %49, ptr noundef %52)
  br label %53

53:                                               ; preds = %45, %42
  %54 = load ptr, ptr %5, align 8
  %55 = load ptr, ptr %8, align 8
  %56 = load ptr, ptr %6, align 8
  %57 = load ptr, ptr %7, align 8
  %58 = load ptr, ptr %9, align 8
  %59 = load ptr, ptr %11, align 8
  %60 = call ptr @build_join_rel(ptr noundef %54, ptr noundef %55, ptr noundef %56, ptr noundef %57, ptr noundef %58, ptr noundef %59, ptr noundef %14)
  store ptr %60, ptr %13, align 8
  %61 = load ptr, ptr %13, align 8
  %62 = call zeroext i1 @is_dummy_rel(ptr noundef %61)
  br i1 %62, label %63, label %66

63:                                               ; preds = %53
  %64 = load ptr, ptr %8, align 8
  call void @bms_free(ptr noundef %64)
  %65 = load ptr, ptr %13, align 8
  store ptr %65, ptr %4, align 8
  store i32 1, ptr %15, align 4
  br label %75

66:                                               ; preds = %53
  %67 = load ptr, ptr %5, align 8
  %68 = load ptr, ptr %6, align 8
  %69 = load ptr, ptr %7, align 8
  %70 = load ptr, ptr %13, align 8
  %71 = load ptr, ptr %9, align 8
  %72 = load ptr, ptr %14, align 8
  call void @populate_joinrel_with_paths(ptr noundef %67, ptr noundef %68, ptr noundef %69, ptr noundef %70, ptr noundef %71, ptr noundef %72)
  %73 = load ptr, ptr %8, align 8
  call void @bms_free(ptr noundef %73)
  %74 = load ptr, ptr %13, align 8
  store ptr %74, ptr %4, align 8
  store i32 1, ptr %15, align 4
  br label %75

75:                                               ; preds = %66, %63, %29
  call void @llvm.lifetime.end.p0(i64 8, ptr %14) #7
  call void @llvm.lifetime.end.p0(i64 8, ptr %13) #7
  call void @llvm.lifetime.end.p0(i64 104, ptr %12) #7
  call void @llvm.lifetime.end.p0(i64 8, ptr %11) #7
  call void @llvm.lifetime.end.p0(i64 1, ptr %10) #7
  call void @llvm.lifetime.end.p0(i64 8, ptr %9) #7
  call void @llvm.lifetime.end.p0(i64 8, ptr %8) #7
  %76 = load ptr, ptr %4, align 8
  ret ptr %76
}