; Function Attrs: nounwind uwtable
define dso_local ptr @make_join_rel(ptr noundef %0, ptr noundef %1, ptr noundef %2) local_unnamed_addr #0 {
  %4 = alloca ptr, align 8
  %5 = alloca i8, align 1
  %6 = alloca ptr, align 8
  %7 = alloca %struct.SpecialJoinInfo, align 8
  %8 = alloca ptr, align 8
  call void @llvm.lifetime.start.p0(i64 8, ptr nonnull %4) #9
  call void @llvm.lifetime.start.p0(i64 1, ptr nonnull %5) #9
  call void @llvm.lifetime.start.p0(i64 8, ptr nonnull %6) #9
  store ptr null, ptr %6, align 8
  call void @llvm.lifetime.start.p0(i64 104, ptr nonnull %7) #9
  call void @llvm.lifetime.start.p0(i64 8, ptr nonnull %8) #9
  %9 = getelementptr inbounds nuw i8, ptr %1, i64 8
  %10 = load ptr, ptr %9, align 8
  %11 = getelementptr inbounds nuw i8, ptr %2, i64 8
  %12 = load ptr, ptr %11, align 8
  %13 = tail call ptr @bms_union(ptr noundef %10, ptr noundef %12) #9
  %14 = call fastcc zeroext i1 @join_is_legal(ptr noundef %0, ptr noundef %1, ptr noundef %2, ptr noundef %13, ptr noundef %4, ptr noundef %5)
  br i1 %14, label %16, label %15

15:                                               ; preds = %3
  tail call void @bms_free(ptr noundef %13) #9
  br label %50

16:                                               ; preds = %3
  %17 = load ptr, ptr %4, align 8
  %18 = call ptr @add_outer_joins_to_relids(ptr noundef %0, ptr noundef %13, ptr noundef %17, ptr noundef nonnull %6)
  %19 = load i8, ptr %5, align 1, !range !4, !noundef !5
  %20 = trunc nuw i8 %19 to i1
  %spec.select = select i1 %20, ptr %1, ptr %2
  %spec.select30 = select i1 %20, ptr %2, ptr %1
  %21 = icmp eq ptr %17, null
  br i1 %21, label %22, label %33

22:                                               ; preds = %16
  %23 = getelementptr inbounds nuw i8, ptr %spec.select30, i64 8
  %24 = load ptr, ptr %23, align 8
  %25 = getelementptr inbounds nuw i8, ptr %spec.select, i64 8
  %26 = load ptr, ptr %25, align 8
  store i32 319, ptr %7, align 8
  %27 = getelementptr inbounds nuw i8, ptr %7, i64 8
  store ptr %24, ptr %27, align 8
  %28 = getelementptr inbounds nuw i8, ptr %7, i64 16
  store ptr %26, ptr %28, align 8
  %29 = getelementptr inbounds nuw i8, ptr %7, i64 24
  store ptr %24, ptr %29, align 8
  %30 = getelementptr inbounds nuw i8, ptr %7, i64 32
  store ptr %26, ptr %30, align 8
  %31 = getelementptr inbounds nuw i8, ptr %7, i64 40
  %32 = getelementptr inbounds nuw i8, ptr %7, i64 88
  call void @llvm.memset.p0.i64(ptr noundef nonnull align 8 dereferenceable(43) %31, i8 0, i64 43, i1 false)
  call void @llvm.memset.p0.i64(ptr noundef nonnull align 8 dereferenceable(16) %32, i8 0, i64 16, i1 false)
  br label %33

33:                                               ; preds = %22, %16
  %34 = phi ptr [ %7, %22 ], [ %17, %16 ]
  %35 = load ptr, ptr %6, align 8
  %36 = call ptr @build_join_rel(ptr noundef %0, ptr noundef %18, ptr noundef nonnull %spec.select30, ptr noundef nonnull %spec.select, ptr noundef nonnull %34, ptr noundef %35, ptr noundef nonnull %8) #9
  %37 = getelementptr inbounds nuw i8, ptr %36, i64 40
  %38 = load ptr, ptr %37, align 8
  %39 = icmp eq ptr %38, null
  br i1 %39, label %.loopexit.i, label %40

40:                                               ; preds = %33
  %41 = getelementptr i8, ptr %38, i64 16
  %.val.i = load ptr, ptr %41, align 8
  br label %42

42:                                               ; preds = %44, %40
  %.0.in.i = phi ptr [ %.val.i, %40 ], [ %.1.in.i, %44 ]
  %.0.i = load ptr, ptr %.0.in.i, align 8
  %43 = load i32, ptr %.0.i, align 4
  switch i32 %43, label %.loopexit.i [
    i32 300, label %44
    i32 301, label %44
    i32 289, label %45
  ]

44:                                               ; preds = %42, %42
  %.1.in.i = getelementptr inbounds nuw i8, ptr %.0.i, i64 80
  br label %42

45:                                               ; preds = %42
  %46 = getelementptr inbounds nuw i8, ptr %.0.i, i64 80
  %47 = load ptr, ptr %46, align 8
  %48 = icmp eq ptr %47, null
  br i1 %48, label %is_dummy_rel.exit, label %.loopexit.i

is_dummy_rel.exit:                                ; preds = %45
  call void @bms_free(ptr noundef %18) #9
  br label %50

.loopexit.i:                                      ; preds = %42, %45, %33
  %49 = load ptr, ptr %8, align 8
  call fastcc void @populate_joinrel_with_paths(ptr noundef %0, ptr noundef nonnull %spec.select30, ptr noundef nonnull %spec.select, ptr noundef %36, ptr noundef nonnull %34, ptr noundef %49)
  call void @bms_free(ptr noundef %18) #9
  br label %50

50:                                               ; preds = %.loopexit.i, %is_dummy_rel.exit, %15
  %.0 = phi ptr [ %36, %is_dummy_rel.exit ], [ %36, %.loopexit.i ], [ null, %15 ]
  call void @llvm.lifetime.end.p0(i64 8, ptr nonnull %8) #9
  call void @llvm.lifetime.end.p0(i64 104, ptr nonnull %7) #9
  call void @llvm.lifetime.end.p0(i64 8, ptr nonnull %6) #9
  call void @llvm.lifetime.end.p0(i64 1, ptr nonnull %5) #9
  call void @llvm.lifetime.end.p0(i64 8, ptr nonnull %4) #9
  ret ptr %.0
}